; Function Attrs: nounwind uwtable
define ptr @l_Lake_instMonadStoreNameStateTNameMapOfMonad___rarg___lambda__1(ptr noundef %0, ptr noundef %1, ptr noundef %2) local_unnamed_addr #0 {
  %.val = load i32, ptr %2, align 4, !tbaa !4
  %4 = icmp eq i32 %.val, 1
  %5 = getelementptr inbounds nuw i8, ptr %2, i64 8
  %6 = load ptr, ptr %5, align 8, !tbaa !9
  br i1 %4, label %7, label %18

7:                                                ; preds = %3
  %8 = tail call ptr @l_Lean_RBNode_find___at_Lean_NameMap_find_x3f___spec__1___rarg(ptr noundef %6, ptr noundef %0) #3
  %9 = ptrtoint ptr %6 to i64
  %10 = and i64 %9, 1
  %.not39 = icmp eq i64 %10, 0
  br i1 %.not39, label %11, label %lean_dec.exit28

11:                                               ; preds = %7
  %12 = load i32, ptr %6, align 4, !tbaa !4
  %13 = icmp sgt i32 %12, 1
  br i1 %13, label %14, label %16, !prof !11

14:                                               ; preds = %11
  %15 = add nsw i32 %12, -1
  store i32 %15, ptr %6, align 4, !tbaa !4
  br label %lean_dec.exit28

16:                                               ; preds = %11
  %.not.i = icmp eq i32 %12, 0
  br i1 %.not.i, label %lean_dec.exit28, label %17

17:                                               ; preds = %16
  tail call void @lean_dec_ref_cold(ptr noundef nonnull %6) #3
  br label %lean_dec.exit28

lean_dec.exit28:                                  ; preds = %17, %16, %14, %7
  store ptr %8, ptr %5, align 8, !tbaa !9
  br label %60

18:                                               ; preds = %3
  %19 = getelementptr inbounds nuw i8, ptr %2, i64 16
  %20 = load ptr, ptr %19, align 8, !tbaa !9
  %21 = ptrtoint ptr %20 to i64
  %22 = and i64 %21, 1
  %.not = icmp eq i64 %22, 0
  br i1 %.not, label %23, label %lean_inc.exit26

23:                                               ; preds = %18
  %.val.i = load i32, ptr %20, align 4, !tbaa !4
  %24 = icmp sgt i32 %.val.i, 0
  br i1 %24, label %25, label %27, !prof !11

25:                                               ; preds = %23
  %26 = add nuw i32 %.val.i, 1
  store i32 %26, ptr %20, align 4, !tbaa !4
  br label %lean_inc.exit26

27:                                               ; preds = %23
  %.not.i33 = icmp eq i32 %.val.i, 0
  br i1 %.not.i33, label %lean_inc.exit26, label %28

28:                                               ; preds = %27
  tail call void @lean_inc_ref_cold(ptr noundef nonnull %20) #3
  br label %lean_inc.exit26

lean_inc.exit26:                                  ; preds = %28, %27, %25, %18
  %29 = ptrtoint ptr %6 to i64
  %30 = and i64 %29, 1
  %.not37 = icmp eq i64 %30, 0
  br i1 %.not37, label %31, label %lean_inc.exit

31:                                               ; preds = %lean_inc.exit26
  %.val.i34 = load i32, ptr %6, align 4, !tbaa !4
  %32 = icmp sgt i32 %.val.i34, 0
  br i1 %32, label %33, label %35, !prof !11

33:                                               ; preds = %31
  %34 = add nuw i32 %.val.i34, 1
  store i32 %34, ptr %6, align 4, !tbaa !4
  br label %lean_inc.exit

35:                                               ; preds = %31
  %.not.i35 = icmp eq i32 %.val.i34, 0
  br i1 %.not.i35, label %lean_inc.exit, label %36

36:                                               ; preds = %35
  tail call void @lean_inc_ref_cold(ptr noundef nonnull %6) #3
  br label %lean_inc.exit

lean_inc.exit:                                    ; preds = %36, %35, %33, %lean_inc.exit26
  %37 = ptrtoint ptr %2 to i64
  %38 = and i64 %37, 1
  %.not38 = icmp eq i64 %38, 0
  br i1 %.not38, label %39, label %lean_dec.exit27

39:                                               ; preds = %lean_inc.exit
  %40 = load i32, ptr %2, align 4, !tbaa !4
  %41 = icmp sgt i32 %40, 1
  br i1 %41, label %42, label %44, !prof !11

42:                                               ; preds = %39
  %43 = add nsw i32 %40, -1
  store i32 %43, ptr %2, align 4, !tbaa !4
  br label %lean_dec.exit27

44:                                               ; preds = %39
  %.not.i29 = icmp eq i32 %40, 0
  br i1 %.not.i29, label %lean_dec.exit27, label %45

45:                                               ; preds = %44
  tail call void @lean_dec_ref_cold(ptr noundef nonnull %2) #3
  br label %lean_dec.exit27

lean_dec.exit27:                                  ; preds = %45, %44, %42, %lean_inc.exit
  %46 = tail call ptr @l_Lean_RBNode_find___at_Lean_NameMap_find_x3f___spec__1___rarg(ptr noundef %6, ptr noundef %0) #3
  br i1 %.not37, label %47, label %lean_dec.exit

47:                                               ; preds = %lean_dec.exit27
  %48 = load i32, ptr %6, align 4, !tbaa !4
  %49 = icmp sgt i32 %48, 1
  br i1 %49, label %50, label %52, !prof !11

50:                                               ; preds = %47
  %51 = add nsw i32 %48, -1
  store i32 %51, ptr %6, align 4, !tbaa !4
  br label %lean_dec.exit

52:                                               ; preds = %47
  %.not.i31 = icmp eq i32 %48, 0
  br i1 %.not.i31, label %lean_dec.exit, label %53

53:                                               ; preds = %52
  tail call void @lean_dec_ref_cold(ptr noundef nonnull %6) #3
  br label %lean_dec.exit

lean_dec.exit:                                    ; preds = %53, %52, %50, %lean_dec.exit27
  tail call void @lean_inc_heartbeat() #3
  %54 = tail call noalias ptr @mi_malloc_small(i64 noundef 24) #3
  %55 = icmp eq ptr %54, null
  br i1 %55, label %56, label %lean_alloc_ctor.exit

56:                                               ; preds = %lean_dec.exit
  tail call void @lean_internal_panic_out_of_memory() #4
  unreachable

lean_alloc_ctor.exit:                             ; preds = %lean_dec.exit
  %57 = getelementptr inbounds nuw i8, ptr %54, i64 4
  store i32 1, ptr %54, align 4, !tbaa !4
  store i32 131096, ptr %57, align 4
  %58 = getelementptr inbounds nuw i8, ptr %54, i64 8
  store ptr %46, ptr %58, align 8, !tbaa !9
  %59 = getelementptr inbounds nuw i8, ptr %54, i64 16
  store ptr %20, ptr %59, align 8, !tbaa !9
  br label %60

60:                                               ; preds = %lean_alloc_ctor.exit, %lean_dec.exit28
  %.sink = phi ptr [ %54, %lean_alloc_ctor.exit ], [ %2, %lean_dec.exit28 ]
  %61 = tail call ptr @lean_apply_2(ptr noundef %1, ptr noundef nonnull inttoptr (i64 1 to ptr), ptr noundef nonnull %.sink) #3
  ret ptr %61
}